; Function Attrs: inlinehint nounwind uwtable
define internal fastcc void @encode_mb_skip_run(ptr noundef captures(none) %0, i32 noundef %1) unnamed_addr #2 {
  %3 = icmp sgt i32 %1, 32
  %4 = getelementptr inbounds nuw i8, ptr %0, i64 4808
  br i1 %3, label %.lr.ph, label %.._crit_edge_crit_edge

.._crit_edge_crit_edge:                           ; preds = %2
  %.pre11 = load i32, ptr %4, align 8, !tbaa !53
  %.phi.trans.insert12 = getelementptr inbounds nuw i8, ptr %0, i64 4812
  %.pre13 = load i32, ptr %.phi.trans.insert12, align 4, !tbaa !52
  br label %._crit_edge

.lr.ph:                                           ; preds = %2
  %5 = getelementptr inbounds nuw i8, ptr %0, i64 4812
  %6 = getelementptr inbounds nuw i8, ptr %0, i64 4832
  %7 = getelementptr inbounds nuw i8, ptr %0, i64 4824
  %.pre = load i32, ptr %4, align 8, !tbaa !53
  %.pre10 = load i32, ptr %5, align 4, !tbaa !52
  br label %8

8:                                                ; preds = %.lr.ph, %put_bits.exit
  %9 = phi i32 [ %.pre10, %.lr.ph ], [ %31, %put_bits.exit ]
  %10 = phi i32 [ %.pre, %.lr.ph ], [ %.026.i.i, %put_bits.exit ]
  %.09 = phi i32 [ %1, %.lr.ph ], [ %32, %put_bits.exit ]
  %11 = icmp sgt i32 %9, 11
  br i1 %11, label %12, label %15

12:                                               ; preds = %8
  %13 = shl i32 %10, 11
  %14 = or disjoint i32 %13, 8
  br label %put_bits.exit

15:                                               ; preds = %8
  %16 = load ptr, ptr %6, align 8, !tbaa !54
  %17 = load ptr, ptr %7, align 8, !tbaa !55
  %18 = ptrtoint ptr %16 to i64
  %19 = ptrtoint ptr %17 to i64
  %20 = sub i64 %18, %19
  %21 = icmp ugt i64 %20, 3
  br i1 %21, label %22, label %30

22:                                               ; preds = %15
  %23 = shl i32 %10, %9
  %24 = sub nsw i32 11, %9
  %25 = lshr i32 8, %24
  %26 = or i32 %25, %23
  %27 = tail call i32 @llvm.bswap.i32(i32 %26)
  store i32 %27, ptr %17, align 1, !tbaa !4
  %28 = load ptr, ptr %7, align 8, !tbaa !55
  %29 = getelementptr inbounds nuw i8, ptr %28, i64 4
  store ptr %29, ptr %7, align 8, !tbaa !55
  br label %put_bits.exit

30:                                               ; preds = %15
  tail call void (ptr, i32, ptr, ...) @av_log(ptr noundef null, i32 noundef 16, ptr noundef nonnull @.str.5) #10
  br label %put_bits.exit

put_bits.exit:                                    ; preds = %22, %30, %12
  %.sink = phi i32 [ -11, %12 ], [ 21, %30 ], [ 21, %22 ]
  %.026.i.i = phi i32 [ %14, %12 ], [ 8, %30 ], [ 8, %22 ]
  %31 = add nsw i32 %9, %.sink
  store i32 %.026.i.i, ptr %4, align 8, !tbaa !53
  store i32 %31, ptr %5, align 4, !tbaa !52
  %32 = add nsw i32 %.09, -33
  %33 = icmp sgt i32 %.09, 65
  br i1 %33, label %8, label %._crit_edge, !llvm.loop !210

._crit_edge:                                      ; preds = %put_bits.exit, %.._crit_edge_crit_edge
  %34 = phi i32 [ %.pre13, %.._crit_edge_crit_edge ], [ %31, %put_bits.exit ]
  %35 = phi i32 [ %.pre11, %.._crit_edge_crit_edge ], [ %.026.i.i, %put_bits.exit ]
  %.0.lcssa = phi i32 [ %1, %.._crit_edge_crit_edge ], [ %32, %put_bits.exit ]
  %36 = sext i32 %.0.lcssa to i64
  %37 = getelementptr inbounds [36 x [2 x i8]], ptr @ff_mpeg12_mbAddrIncrTable, i64 0, i64 %36
  %38 = getelementptr inbounds nuw i8, ptr %37, i64 1
  %39 = load i8, ptr %38, align 1, !tbaa !4
  %40 = zext i8 %39 to i32
  %41 = load i8, ptr %37, align 2, !tbaa !4
  %42 = zext i8 %41 to i32
  %43 = icmp sgt i32 %34, %40
  br i1 %43, label %44, label %48

44:                                               ; preds = %._crit_edge
  %45 = shl i32 %35, %40
  %46 = or i32 %45, %42
  %47 = sub nsw i32 %34, %40
  br label %put_bits.exit8

48:                                               ; preds = %._crit_edge
  %49 = getelementptr inbounds nuw i8, ptr %0, i64 4832
  %50 = load ptr, ptr %49, align 8, !tbaa !54
  %51 = getelementptr inbounds nuw i8, ptr %0, i64 4824
  %52 = load ptr, ptr %51, align 8, !tbaa !55
  %53 = ptrtoint ptr %50 to i64
  %54 = ptrtoint ptr %52 to i64
  %55 = sub i64 %53, %54
  %56 = icmp ugt i64 %55, 3
  br i1 %56, label %57, label %65

57:                                               ; preds = %48
  %58 = shl i32 %35, %34
  %59 = sub nsw i32 %40, %34
  %60 = lshr i32 %42, %59
  %61 = or i32 %60, %58
  %62 = tail call i32 @llvm.bswap.i32(i32 %61)
  store i32 %62, ptr %52, align 1, !tbaa !4
  %63 = load ptr, ptr %51, align 8, !tbaa !55
  %64 = getelementptr inbounds nuw i8, ptr %63, i64 4
  store ptr %64, ptr %51, align 8, !tbaa !55
  br label %66

65:                                               ; preds = %48
  tail call void (ptr, i32, ptr, ...) @av_log(ptr noundef null, i32 noundef 16, ptr noundef nonnull @.str.5) #10
  br label %66

66:                                               ; preds = %65, %57
  %reass.sub = sub i32 %34, %40
  %67 = add i32 %reass.sub, 32
  br label %put_bits.exit8

put_bits.exit8:                                   ; preds = %44, %66
  %.026.i.i6 = phi i32 [ %46, %44 ], [ %42, %66 ]
  %.0.i.i7 = phi i32 [ %47, %44 ], [ %67, %66 ]
  %68 = getelementptr inbounds nuw i8, ptr %0, i64 4812
  %69 = getelementptr inbounds nuw i8, ptr %0, i64 4808
  store i32 %.026.i.i6, ptr %69, align 8, !tbaa !53
  store i32 %.0.i.i7, ptr %68, align 4, !tbaa !52
  ret void
}